; Function Attrs: mustprogress uwtable
define void @_ZN3net29CreateNestedSpdyFramerDecoderEPNS_10SpdyFramerE(ptr dead_on_unwind noalias writable writeonly sret(%"class.std::unique_ptr") align 8 captures(none) %0, ptr noundef %1) local_unnamed_addr #3 personality ptr @__gxx_personality_v0 {
  %3 = tail call noalias noundef nonnull dereferenceable(312) ptr @_Znwm(i64 noundef 312) #11
  %4 = getelementptr inbounds nuw i8, ptr %3, i64 8
  tail call void @llvm.memset.p0.i64(ptr noundef nonnull align 8 dereferenceable(17) %4, i8 0, i64 17, i1 false)
  store ptr getelementptr inbounds nuw inrange(-16, 88) (i8, ptr @_ZTVN3net23NestedSpdyFramerDecoderE, i64 16), ptr %3, align 8, !tbaa !3
  %5 = getelementptr inbounds nuw i8, ptr %3, i64 32
  invoke void @_ZN3net10SpdyFramerC1ENS_16SpdyMajorVersionEPFSt10unique_ptrINS_24SpdyFramerDecoderAdapterESt14default_deleteIS3_EEPS0_E(ptr noundef nonnull align 8 dereferenceable(259) %5, i32 noundef 2, ptr noundef null)
          to label %7 unwind label %.body

.body:                                            ; preds = %2
  %6 = landingpad { ptr, i32 }
          cleanup
  store ptr getelementptr inbounds nuw inrange(-16, 88) (i8, ptr @_ZTVN3net24SpdyFramerDecoderAdapterE, i64 16), ptr %3, align 8, !tbaa !3
  tail call void @_ZdlPv(ptr noundef nonnull %3) #12
  resume { ptr, i32 } %6

7:                                                ; preds = %2
  %8 = getelementptr inbounds nuw i8, ptr %3, i64 296
  store ptr %1, ptr %8, align 8, !tbaa !20
  %9 = getelementptr inbounds nuw i8, ptr %3, i64 304
  store ptr null, ptr %9, align 8, !tbaa !90
  store ptr %3, ptr %0, align 8, !tbaa !91
  ret void
}